target datalayout = "e-m:e-p270:32:32-p271:32:32-p272:64:64-i64:64-i128:128-f80:128-n8:16:32:64-S128"
target triple = "x86_64-pc-linux-gnu"

%struct.stack_t = type { ptr, i32, i64 }
%"struct.doctest::(anonymous namespace)::SignalDefs" = type { i32, ptr }
%struct.sigaction = type { %union.anon.109, %struct.__sigset_t, i32, ptr }
%union.anon.109 = type { ptr }
%struct.__sigset_t = type { [16 x i64] }

@_ZN7doctest12_GLOBAL__N_121FatalConditionHandler5isSetE = internal global i8 0, align 1
@_ZN7doctest12_GLOBAL__N_121FatalConditionHandler11oldSigStackE = internal global %struct.stack_t zeroinitializer, align 8
@_ZN7doctest12_GLOBAL__N_121FatalConditionHandler13oldSigActionsE = internal global [6 x %struct.sigaction] zeroinitializer, align 16

; Function Attrs: mustprogress nounwind uwtable
define internal void @_ZN7doctest12_GLOBAL__N_121FatalConditionHandler5resetEv() #1 align 2 {
  %1 = alloca i64, align 8
  %2 = load i8, ptr @_ZN7doctest12_GLOBAL__N_121FatalConditionHandler5isSetE, align 1, !tbaa !16, !range !36, !noundef !37
  %3 = trunc i8 %2 to i1
  br i1 %3, label %4, label %22

4:                                                ; preds = %0
  call void @llvm.lifetime.start.p0(i64 8, ptr %1) #7
  store i64 0, ptr %1, align 8, !tbaa !53
  br label %5

5:                                                ; preds = %17, %4
  %6 = load i64, ptr %1, align 8, !tbaa !53
  %7 = icmp ult i64 %6, 6
  br i1 %7, label %9, label %8

8:                                                ; preds = %5
  call void @llvm.lifetime.end.p0(i64 8, ptr %1) #7
  br label %20

9:                                                ; preds = %5
  %10 = load i64, ptr %1, align 8, !tbaa !53
  %11 = getelementptr inbounds nuw [6 x %"struct.doctest::(anonymous namespace)::SignalDefs"], ptr @_ZN7doctest12_GLOBAL__N_110signalDefsE, i64 0, i64 %10
  %12 = getelementptr inbounds nuw %"struct.doctest::(anonymous namespace)::SignalDefs", ptr %11, i32 0, i32 0
  %13 = load i32, ptr %12, align 16, !tbaa !424
  %14 = load i64, ptr %1, align 8, !tbaa !53
  %15 = getelementptr inbounds nuw [6 x %struct.sigaction], ptr @_ZN7doctest12_GLOBAL__N_121FatalConditionHandler13oldSigActionsE, i64 0, i64 %14
  %16 = call i32 @sigaction(i32 noundef %13, ptr noundef %15, ptr noundef null) #7
  br label %17

17:                                               ; preds = %9
  %18 = load i64, ptr %1, align 8, !tbaa !53
  %19 = add i64 %18, 1
  store i64 %19, ptr %1, align 8, !tbaa !53
  br label %5, !llvm.loop !427

20:                                               ; preds = %8
  %21 = call i32 @sigaltstack(ptr noundef @_ZN7doctest12_GLOBAL__N_121FatalConditionHandler11oldSigStackE, ptr noundef null) #7
  store i8 0, ptr @_ZN7doctest12_GLOBAL__N_121FatalConditionHandler5isSetE, align 1, !tbaa !16
  br label %22

22:                                               ; preds = %20, %0
  ret void
}

; Function Attrs: mustprogress nounwind uwtable
define internal void @_ZN7doctest12_GLOBAL__N_121FatalConditionHandlerD2Ev(ptr noundef nonnull align 1 dereferenceable(1) %0) unnamed_addr #1 align 2 {
  %2 = alloca ptr, align 8
  store ptr %0, ptr %2, align 8, !tbaa !415
  call void @_ZN7doctest12_GLOBAL__N_121FatalConditionHandler5resetEv()
  ret void
}