; Function Attrs: mustprogress nounwind uwtable
define internal fastcc void @_ZN7doctest12_GLOBAL__N_121FatalConditionHandlerD2Ev() unnamed_addr #7 align 2 {
  %.b4.i = load i1, ptr @_ZN7doctest12_GLOBAL__N_121FatalConditionHandler5isSetE, align 1
  br i1 %.b4.i, label %.preheader.i, label %_ZN7doctest12_GLOBAL__N_121FatalConditionHandler5resetEv.exit

1:                                                ; preds = %.preheader.i
  %2 = tail call i32 @sigaltstack(ptr noundef nonnull @_ZN7doctest12_GLOBAL__N_121FatalConditionHandler11oldSigStackE, ptr noundef null) #49
  store i1 false, ptr @_ZN7doctest12_GLOBAL__N_121FatalConditionHandler5isSetE, align 1
  br label %_ZN7doctest12_GLOBAL__N_121FatalConditionHandler5resetEv.exit

.preheader.i:                                     ; preds = %0, %.preheader.i
  %.05.i = phi i64 [ %7, %.preheader.i ], [ 0, %0 ]
  %3 = getelementptr inbounds nuw [6 x %"struct.doctest::(anonymous namespace)::SignalDefs"], ptr @_ZN7doctest12_GLOBAL__N_110signalDefsE, i64 0, i64 %.05.i
  %4 = load i32, ptr %3, align 16, !tbaa !393
  %5 = getelementptr inbounds nuw [6 x %struct.sigaction], ptr @_ZN7doctest12_GLOBAL__N_121FatalConditionHandler13oldSigActionsE, i64 0, i64 %.05.i
  %6 = tail call i32 @sigaction(i32 noundef %4, ptr noundef nonnull %5, ptr noundef null) #49
  %7 = add nuw nsw i64 %.05.i, 1
  %exitcond.not.i = icmp eq i64 %7, 6
  br i1 %exitcond.not.i, label %1, label %.preheader.i, !llvm.loop !396

_ZN7doctest12_GLOBAL__N_121FatalConditionHandler5resetEv.exit: ; preds = %0, %1
  ret void
}